---
triple:          'arm64-apple-darwin'
binary-path:     "/Users/yuuta/Desktop/アプリ開発/docker_images_atcoder/atcoder/abc/abc071/b/abc071_b.out"
relocations:
  - { offsetInCU: 0x38, offset: 0x38, size: 0x8, addend: 0x0, symName: __ZN7atcoder14convolution_llERKNSt3__16vectorIxNS0_9allocatorIxEEEES6_, symObjAddr: 0x9C, symBinAddr: 0x1000041D8, symSize: 0x2F8 }
  - { offsetInCU: 0xDB, offset: 0xDB, size: 0x8, addend: 0x0, symName: __ZZN7atcoder14convolution_llERKNSt3__16vectorIxNS0_9allocatorIxEEEES6_E6offset, symObjAddr: 0xB800, symBinAddr: 0x10000FB70, symSize: 0x0 }
  - { offsetInCU: 0xD0A, offset: 0xD0A, size: 0x8, addend: 0x0, symName: __ZN7atcoder8internal9butterflyINS_13static_modintILi754974721ELPv0EEELS3_0EEEvRNSt3__16vectorIT_NS5_9allocatorIS7_EEEE, symObjAddr: 0x41EC, symBinAddr: 0x100008328, symSize: 0x3C0 }
  - { offsetInCU: 0xD2F, offset: 0xD2F, size: 0x8, addend: 0x0, symName: __ZZN7atcoder8internal9butterflyINS_13static_modintILi754974721ELPv0EEELS3_0EEEvRNSt3__16vectorIT_NS5_9allocatorIS7_EEEEE4info, symObjAddr: 0xBA50, symBinAddr: 0x100014000, symSize: 0x0 }
  - { offsetInCU: 0x13C6, offset: 0x13C6, size: 0x8, addend: 0x0, symName: __ZN7atcoder8internal13butterfly_invINS_13static_modintILi754974721ELPv0EEELS3_0EEEvRNSt3__16vectorIT_NS5_9allocatorIS7_EEEE, symObjAddr: 0x45AC, symBinAddr: 0x1000086E8, symSize: 0x344 }
  - { offsetInCU: 0x13EB, offset: 0x13EB, size: 0x8, addend: 0x0, symName: __ZZN7atcoder8internal13butterfly_invINS_13static_modintILi754974721ELPv0EEELS3_0EEEvRNSt3__16vectorIT_NS5_9allocatorIS7_EEEEE4info, symObjAddr: 0xBC88, symBinAddr: 0x100014238, symSize: 0x0 }
  - { offsetInCU: 0x1941, offset: 0x1941, size: 0x8, addend: 0x0, symName: __ZN7atcoder8internal9butterflyINS_13static_modintILi167772161ELPv0EEELS3_0EEEvRNSt3__16vectorIT_NS5_9allocatorIS7_EEEE, symObjAddr: 0x5618, symBinAddr: 0x100009754, symSize: 0x3C0 }
  - { offsetInCU: 0x1966, offset: 0x1966, size: 0x8, addend: 0x0, symName: __ZZN7atcoder8internal9butterflyINS_13static_modintILi167772161ELPv0EEELS3_0EEEvRNSt3__16vectorIT_NS5_9allocatorIS7_EEEEE4info, symObjAddr: 0xBEC0, symBinAddr: 0x100014470, symSize: 0x0 }
  - { offsetInCU: 0x1FE3, offset: 0x1FE3, size: 0x8, addend: 0x0, symName: __ZN7atcoder8internal13butterfly_invINS_13static_modintILi167772161ELPv0EEELS3_0EEEvRNSt3__16vectorIT_NS5_9allocatorIS7_EEEE, symObjAddr: 0x59D8, symBinAddr: 0x100009B14, symSize: 0x344 }
  - { offsetInCU: 0x2008, offset: 0x2008, size: 0x8, addend: 0x0, symName: __ZZN7atcoder8internal13butterfly_invINS_13static_modintILi167772161ELPv0EEELS3_0EEEvRNSt3__16vectorIT_NS5_9allocatorIS7_EEEEE4info, symObjAddr: 0xC110, symBinAddr: 0x1000146C0, symSize: 0x0 }
  - { offsetInCU: 0x255E, offset: 0x255E, size: 0x8, addend: 0x0, symName: __ZN7atcoder8internal9butterflyINS_13static_modintILi469762049ELPv0EEELS3_0EEEvRNSt3__16vectorIT_NS5_9allocatorIS7_EEEE, symObjAddr: 0x6A34, symBinAddr: 0x10000AB70, symSize: 0x3C0 }
  - { offsetInCU: 0x2583, offset: 0x2583, size: 0x8, addend: 0x0, symName: __ZZN7atcoder8internal9butterflyINS_13static_modintILi469762049ELPv0EEELS3_0EEEvRNSt3__16vectorIT_NS5_9allocatorIS7_EEEEE4info, symObjAddr: 0xC360, symBinAddr: 0x100014910, symSize: 0x0 }
  - { offsetInCU: 0x2C01, offset: 0x2C01, size: 0x8, addend: 0x0, symName: __ZN7atcoder8internal13butterfly_invINS_13static_modintILi469762049ELPv0EEELS3_0EEEvRNSt3__16vectorIT_NS5_9allocatorIS7_EEEE, symObjAddr: 0x6DF4, symBinAddr: 0x10000AF30, symSize: 0x344 }
  - { offsetInCU: 0x2C26, offset: 0x2C26, size: 0x8, addend: 0x0, symName: __ZZN7atcoder8internal13butterfly_invINS_13static_modintILi469762049ELPv0EEELS3_0EEEvRNSt3__16vectorIT_NS5_9allocatorIS7_EEEEE4info, symObjAddr: 0xC5C8, symBinAddr: 0x100014B78, symSize: 0x0 }
  - { offsetInCU: 0x317C, offset: 0x317C, size: 0x8, addend: 0x0, symName: __ZN7atcoder8internal9ceil_pow2Ei, symObjAddr: 0x0, symBinAddr: 0x10000413C, symSize: 0x20 }
  - { offsetInCU: 0x31A2, offset: 0x31A2, size: 0x8, addend: 0x0, symName: __ZN7atcoder8internal3bsfEj, symObjAddr: 0x20, symBinAddr: 0x10000415C, symSize: 0xC }
  - { offsetInCU: 0x31BF, offset: 0x31BF, size: 0x8, addend: 0x0, symName: __ZN7atcoder8internal18floor_sum_unsignedEyyyy, symObjAddr: 0x2C, symBinAddr: 0x100004168, symSize: 0x70 }
  - { offsetInCU: 0x3364, offset: 0x3364, size: 0x8, addend: 0x0, symName: __ZN7atcoder8internal8sa_naiveERKNSt3__16vectorIiNS1_9allocatorIiEEEE, symObjAddr: 0x115C, symBinAddr: 0x100005298, symSize: 0x184 }
  - { offsetInCU: 0x37E9, offset: 0x37E9, size: 0x8, addend: 0x0, symName: __ZN7atcoder8internal11sa_doublingERKNSt3__16vectorIiNS1_9allocatorIiEEEE, symObjAddr: 0x1310, symBinAddr: 0x10000544C, symSize: 0x36C }
  - { offsetInCU: 0x466B, offset: 0x466B, size: 0x8, addend: 0x0, symName: __ZN7atcoder8internal5sa_isILi10ELi40EEENSt3__16vectorIiNS2_9allocatorIiEEEERKS6_i, symObjAddr: 0x16C0, symBinAddr: 0x1000057FC, symSize: 0xB0C }
  - { offsetInCU: 0x781E, offset: 0x781E, size: 0x8, addend: 0x0, symName: __ZN7atcoder8internal17convolution_naiveINS_13static_modintILi754974721ELPv0EEELS3_0EEENSt3__16vectorIT_NS5_9allocatorIS7_EEEERKSA_SC_, symObjAddr: 0x3978, symBinAddr: 0x100007AB4, symSize: 0x47C }
  - { offsetInCU: 0x7CC2, offset: 0x7CC2, size: 0x8, addend: 0x0, symName: __ZN7atcoder8internal15convolution_fftINS_13static_modintILi754974721ELPv0EEELS3_0EEENSt3__16vectorIT_NS5_9allocatorIS7_EEEESA_SA_, symObjAddr: 0x3DF4, symBinAddr: 0x100007F30, symSize: 0x3F8 }
  - { offsetInCU: 0x8135, offset: 0x8135, size: 0x8, addend: 0x0, symName: __ZN7atcoder8internal9butterflyINS_13static_modintILi754974721ELPv0EEELS3_0EEEvRNSt3__16vectorIT_NS5_9allocatorIS7_EEEE, symObjAddr: 0x41EC, symBinAddr: 0x100008328, symSize: 0x3C0 }
  - { offsetInCU: 0x8191, offset: 0x8191, size: 0x8, addend: 0x0, symName: __ZN7atcoder8internal17convolution_naiveINS_13static_modintILi167772161ELPv0EEELS3_0EEENSt3__16vectorIT_NS5_9allocatorIS7_EEEERKSA_SC_, symObjAddr: 0x4DA4, symBinAddr: 0x100008EE0, symSize: 0x47C }
  - { offsetInCU: 0x8635, offset: 0x8635, size: 0x8, addend: 0x0, symName: __ZN7atcoder8internal15convolution_fftINS_13static_modintILi167772161ELPv0EEELS3_0EEENSt3__16vectorIT_NS5_9allocatorIS7_EEEESA_SA_, symObjAddr: 0x5220, symBinAddr: 0x10000935C, symSize: 0x3F8 }
  - { offsetInCU: 0x8AA8, offset: 0x8AA8, size: 0x8, addend: 0x0, symName: __ZN7atcoder8internal9butterflyINS_13static_modintILi167772161ELPv0EEELS3_0EEEvRNSt3__16vectorIT_NS5_9allocatorIS7_EEEE, symObjAddr: 0x5618, symBinAddr: 0x100009754, symSize: 0x3C0 }
  - { offsetInCU: 0x8AC1, offset: 0x8AC1, size: 0x8, addend: 0x0, symName: __ZN7atcoder8internal17convolution_naiveINS_13static_modintILi469762049ELPv0EEELS3_0EEENSt3__16vectorIT_NS5_9allocatorIS7_EEEERKSA_SC_, symObjAddr: 0x61C0, symBinAddr: 0x10000A2FC, symSize: 0x47C }
  - { offsetInCU: 0x8F65, offset: 0x8F65, size: 0x8, addend: 0x0, symName: __ZN7atcoder8internal15convolution_fftINS_13static_modintILi469762049ELPv0EEELS3_0EEENSt3__16vectorIT_NS5_9allocatorIS7_EEEESA_SA_, symObjAddr: 0x663C, symBinAddr: 0x10000A778, symSize: 0x3F8 }
  - { offsetInCU: 0x93D8, offset: 0x93D8, size: 0x8, addend: 0x0, symName: __ZN7atcoder8internal9butterflyINS_13static_modintILi469762049ELPv0EEELS3_0EEEvRNSt3__16vectorIT_NS5_9allocatorIS7_EEEE, symObjAddr: 0x6A34, symBinAddr: 0x10000AB70, symSize: 0x3C0 }
  - { offsetInCU: 0x9A55, offset: 0x9A55, size: 0x8, addend: 0x0, symName: __ZN7atcoder11convolutionILj754974721ExLPv0EEENSt3__16vectorIT0_NS2_9allocatorIS4_EEEERKS7_S9_, symObjAddr: 0x394, symBinAddr: 0x1000044D0, symSize: 0x360 }
  - { offsetInCU: 0xA87B, offset: 0xA87B, size: 0x8, addend: 0x0, symName: __ZN7atcoder11convolutionILj167772161ExLPv0EEENSt3__16vectorIT0_NS2_9allocatorIS4_EEEERKS7_S9_, symObjAddr: 0x6F4, symBinAddr: 0x100004830, symSize: 0x360 }
  - { offsetInCU: 0xB6A0, offset: 0xB6A0, size: 0x8, addend: 0x0, symName: __ZN7atcoder11convolutionILj469762049ExLPv0EEENSt3__16vectorIT0_NS2_9allocatorIS4_EEEERKS7_S9_, symObjAddr: 0xA54, symBinAddr: 0x100004B90, symSize: 0x360 }
  - { offsetInCU: 0xC4C6, offset: 0xC4C6, size: 0x8, addend: 0x0, symName: __ZN7atcoder11convolutionINS_13static_modintILi754974721ELPv0EEELS2_0EEENSt3__16vectorIT_NS4_9allocatorIS6_EEEEOS9_SA_, symObjAddr: 0x37D8, symBinAddr: 0x100007914, symSize: 0x18C }
  - { offsetInCU: 0xCE8A, offset: 0xCE8A, size: 0x8, addend: 0x0, symName: __ZN7atcoder11convolutionINS_13static_modintILi167772161ELPv0EEELS2_0EEENSt3__16vectorIT_NS4_9allocatorIS6_EEEEOS9_SA_, symObjAddr: 0x4C04, symBinAddr: 0x100008D40, symSize: 0x18C }
  - { offsetInCU: 0xD84E, offset: 0xD84E, size: 0x8, addend: 0x0, symName: __ZN7atcoder11convolutionINS_13static_modintILi469762049ELPv0EEELS2_0EEENSt3__16vectorIT_NS4_9allocatorIS6_EEEEOS9_SA_, symObjAddr: 0x6020, symBinAddr: 0x10000A15C, symSize: 0x18C }
  - { offsetInCU: 0xE212, offset: 0xE212, size: 0x8, addend: 0x0, symName: __ZN7atcoder7pow_modExxi, symObjAddr: 0xDB4, symBinAddr: 0x100004EF0, symSize: 0xB8 }
  - { offsetInCU: 0xE344, offset: 0xE344, size: 0x8, addend: 0x0, symName: __ZN7atcoder7inv_modExx, symObjAddr: 0xE6C, symBinAddr: 0x100004FA8, symSize: 0x78 }
  - { offsetInCU: 0xE34E, offset: 0xE34E, size: 0x8, addend: 0x0, symName: __ZN7atcoder7inv_modExx, symObjAddr: 0xE6C, symBinAddr: 0x100004FA8, symSize: 0x78 }
  - { offsetInCU: 0xE42E, offset: 0xE42E, size: 0x8, addend: 0x0, symName: __ZN7atcoder3crtERKNSt3__16vectorIxNS0_9allocatorIxEEEES6_, symObjAddr: 0xEE4, symBinAddr: 0x100005020, symSize: 0x16C }
  - { offsetInCU: 0xE438, offset: 0xE438, size: 0x8, addend: 0x0, symName: __ZN7atcoder3crtERKNSt3__16vectorIxNS0_9allocatorIxEEEES6_, symObjAddr: 0xEE4, symBinAddr: 0x100005020, symSize: 0x16C }
  - { offsetInCU: 0xE600, offset: 0xE600, size: 0x8, addend: 0x0, symName: __ZN7atcoder9floor_sumExxxx, symObjAddr: 0x1050, symBinAddr: 0x10000518C, symSize: 0x10C }
  - { offsetInCU: 0xE60A, offset: 0xE60A, size: 0x8, addend: 0x0, symName: __ZN7atcoder9floor_sumExxxx, symObjAddr: 0x1050, symBinAddr: 0x10000518C, symSize: 0x10C }
  - { offsetInCU: 0xE750, offset: 0xE750, size: 0x8, addend: 0x0, symName: __ZN7atcoder8internal8sa_naiveERKNSt3__16vectorIiNS1_9allocatorIiEEEE, symObjAddr: 0x115C, symBinAddr: 0x100005298, symSize: 0x184 }
  - { offsetInCU: 0xE75A, offset: 0xE75A, size: 0x8, addend: 0x0, symName: __ZN7atcoder12suffix_arrayERKNSt3__16vectorIiNS0_9allocatorIiEEEEi, symObjAddr: 0x167C, symBinAddr: 0x1000057B8, symSize: 0x44 }
  - { offsetInCU: 0xE833, offset: 0xE833, size: 0x8, addend: 0x0, symName: __ZN7atcoder8internal5sa_isILi10ELi40EEENSt3__16vectorIiNS2_9allocatorIiEEEERKS6_i, symObjAddr: 0x16C0, symBinAddr: 0x1000057FC, symSize: 0xB0C }
  - { offsetInCU: 0xE83D, offset: 0xE83D, size: 0x8, addend: 0x0, symName: __ZN7atcoder12suffix_arrayERKNSt3__112basic_stringIcNS0_11char_traitsIcEENS0_9allocatorIcEEEE, symObjAddr: 0x21CC, symBinAddr: 0x100006308, symSize: 0x200 }
  - { offsetInCU: 0xEBF3, offset: 0xEBF3, size: 0x8, addend: 0x0, symName: __ZN7atcoder9lcp_arrayERKNSt3__112basic_stringIcNS0_11char_traitsIcEENS0_9allocatorIcEEEERKNS0_6vectorIiNS4_IiEEEE, symObjAddr: 0x23CC, symBinAddr: 0x100006508, symSize: 0x20C }
  - { offsetInCU: 0xEFB7, offset: 0xEFB7, size: 0x8, addend: 0x0, symName: __ZN7atcoder9lcp_arrayIiEENSt3__16vectorIiNS1_9allocatorIiEEEERKNS2_IT_NS3_IS6_EEEERKS5_, symObjAddr: 0x25D8, symBinAddr: 0x100006714, symSize: 0x214 }
  - { offsetInCU: 0xF793, offset: 0xF793, size: 0x8, addend: 0x0, symName: __ZN7atcoder11z_algorithmERKNSt3__112basic_stringIcNS0_11char_traitsIcEENS0_9allocatorIcEEEE, symObjAddr: 0x27EC, symBinAddr: 0x100006928, symSize: 0x1FC }
  - { offsetInCU: 0xFB4A, offset: 0xFB4A, size: 0x8, addend: 0x0, symName: __ZN7atcoder11z_algorithmIiEENSt3__16vectorIiNS1_9allocatorIiEEEERKNS2_IT_NS3_IS6_EEEE, symObjAddr: 0x29E8, symBinAddr: 0x100006B24, symSize: 0x184 }
  - { offsetInCU: 0x100FC, offset: 0x100FC, size: 0x8, addend: 0x0, symName: _dj, symObjAddr: 0xD6C48, symBinAddr: 0x100014DE0, symSize: 0x0 }
  - { offsetInCU: 0x1D3C3, offset: 0x1D3C3, size: 0x8, addend: 0x0, symName: '__ZNSt3__111__introsortINS_17_ClassicAlgPolicyERZN7atcoder8internal8sa_naiveERKNS_6vectorIiNS_9allocatorIiEEEEE3$_0PiLb0EEEvT1_SD_T0_NS_15iterator_traitsISD_E15difference_typeEb', symObjAddr: 0x7464, symBinAddr: 0x10000B5A0, symSize: 0x10DC }
  - { offsetInCU: 0x1E048, offset: 0x1E048, size: 0x8, addend: 0x0, symName: '__ZNSt3__127__insertion_sort_incompleteB8ue170006INS_17_ClassicAlgPolicyERZN7atcoder8internal8sa_naiveERKNS_6vectorIiNS_9allocatorIiEEEEE3$_0PiEEbT1_SD_T0_', symObjAddr: 0x89D8, symBinAddr: 0x10000CB14, symSize: 0x2AC }
  - { offsetInCU: 0x1E35E, offset: 0x1E35E, size: 0x8, addend: 0x0, symName: '__ZNSt3__111__introsortINS_17_ClassicAlgPolicyERZN7atcoder8internal11sa_doublingERKNS_6vectorIiNS_9allocatorIiEEEEE3$_1PiLb0EEEvT1_SD_T0_NS_15iterator_traitsISD_E15difference_typeEb', symObjAddr: 0x8E40, symBinAddr: 0x10000CF7C, symSize: 0xFD4 }
  - { offsetInCU: 0x1F154, offset: 0x1F154, size: 0x8, addend: 0x0, symName: '__ZNSt3__127__insertion_sort_incompleteB8ue170006INS_17_ClassicAlgPolicyERZN7atcoder8internal11sa_doublingERKNS_6vectorIiNS_9allocatorIiEEEEE3$_1PiEEbT1_SD_T0_', symObjAddr: 0xA270, symBinAddr: 0x10000E3AC, symSize: 0x2B8 }
  - { offsetInCU: 0x23EA2, offset: 0x23EA2, size: 0x8, addend: 0x0, symName: __ZNSt3__124__put_character_sequenceB8ue170006IcNS_11char_traitsIcEEEERNS_13basic_ostreamIT_T0_EES7_PKS4_m, symObjAddr: 0xACDC, symBinAddr: 0x10000EE18, symSize: 0x164 }
  - { offsetInCU: 0x27793, offset: 0x27793, size: 0x8, addend: 0x0, symName: __ZNSt3__1rsB8ue170006IcNS_11char_traitsIcEENS_9allocatorIcEEEERNS_13basic_istreamIT_T0_EES9_RNS_12basic_stringIS6_S7_T1_EE, symObjAddr: 0x34F4, symBinAddr: 0x100007630, symSize: 0x228 }
  - { offsetInCU: 0x2847F, offset: 0x2847F, size: 0x8, addend: 0x0, symName: __ZNSt3__120__throw_length_errorB8ue170006EPKc, symObjAddr: 0x373C, symBinAddr: 0x100007878, symSize: 0x50 }
  - { offsetInCU: 0x2A07F, offset: 0x2A07F, size: 0x8, addend: 0x0, symName: '__ZNSt3__17__sort3B8ue170006INS_17_ClassicAlgPolicyERZN7atcoder8internal8sa_naiveERKNS_6vectorIiNS_9allocatorIiEEEEE3$_0PiEEjT1_SD_SD_T0_', symObjAddr: 0x877C, symBinAddr: 0x10000C8B8, symSize: 0x25C }
  - { offsetInCU: 0x2A3AB, offset: 0x2A3AB, size: 0x8, addend: 0x0, symName: '__ZNSt3__17__sort4B8ue170006INS_17_ClassicAlgPolicyERZN7atcoder8internal8sa_naiveERKNS_6vectorIiNS_9allocatorIiEEEEE3$_0PiEEvT1_SD_SD_SD_T0_', symObjAddr: 0x8C84, symBinAddr: 0x10000CDC0, symSize: 0x1BC }
  - { offsetInCU: 0x2A5F4, offset: 0x2A5F4, size: 0x8, addend: 0x0, symName: '__ZNSt3__124__sort5_maybe_branchlessB8ue170006INS_17_ClassicAlgPolicyERZN7atcoder8internal8sa_naiveERKNS_6vectorIiNS_9allocatorIiEEEEE3$_0PiEENS_9enable_ifIXntsr21__use_branchless_sortIT0_T1_EE5valueEvE4typeESF_SF_SF_SF_SF_SE_', symObjAddr: 0x8540, symBinAddr: 0x10000C67C, symSize: 0x23C }
  - { offsetInCU: 0x2B05B, offset: 0x2B05B, size: 0x8, addend: 0x0, symName: '__ZNSt3__17__sort3B8ue170006INS_17_ClassicAlgPolicyERZN7atcoder8internal11sa_doublingERKNS_6vectorIiNS_9allocatorIiEEEEE3$_1PiEEjT1_SD_SD_T0_', symObjAddr: 0xA034, symBinAddr: 0x10000E170, symSize: 0x23C }
  - { offsetInCU: 0x2B3E0, offset: 0x2B3E0, size: 0x8, addend: 0x0, symName: '__ZNSt3__17__sort4B8ue170006INS_17_ClassicAlgPolicyERZN7atcoder8internal11sa_doublingERKNS_6vectorIiNS_9allocatorIiEEEEE3$_1PiEEvT1_SD_SD_SD_T0_', symObjAddr: 0xA528, symBinAddr: 0x10000E664, symSize: 0x1A8 }
  - { offsetInCU: 0x2B667, offset: 0x2B667, size: 0x8, addend: 0x0, symName: '__ZNSt3__124__sort5_maybe_branchlessB8ue170006INS_17_ClassicAlgPolicyERZN7atcoder8internal11sa_doublingERKNS_6vectorIiNS_9allocatorIiEEEEE3$_1PiEENS_9enable_ifIXntsr21__use_branchless_sortIT0_T1_EE5valueEvE4typeESF_SF_SF_SF_SF_SE_', symObjAddr: 0x9E14, symBinAddr: 0x10000DF50, symSize: 0x220 }
  - { offsetInCU: 0x2BDC0, offset: 0x2BDC0, size: 0x8, addend: 0x0, symName: __ZNSt3__120__throw_out_of_rangeB8ue170006EPKc, symObjAddr: 0xA9A8, symBinAddr: 0x10000EAE4, symSize: 0x50 }
  - { offsetInCU: 0x2BF73, offset: 0x2BF73, size: 0x8, addend: 0x0, symName: __ZNSt3__116__pad_and_outputB8ue170006IcNS_11char_traitsIcEEEENS_19ostreambuf_iteratorIT_T0_EES6_PKS4_S8_S8_RNS_8ios_baseES4_, symObjAddr: 0xAE40, symBinAddr: 0x10000EF7C, symSize: 0x194 }
  - { offsetInCU: 0x2CDF2, offset: 0x2CDF2, size: 0x8, addend: 0x0, symName: __ZSt28__throw_bad_array_new_lengthB8ue170006v, symObjAddr: 0x37B0, symBinAddr: 0x1000078EC, symSize: 0x28 }
  - { offsetInCU: 0x2D068, offset: 0x2D068, size: 0x8, addend: 0x0, symName: _di, symObjAddr: 0xD6C60, symBinAddr: 0x100014DF8, symSize: 0x0 }
  - { offsetInCU: 0x30E82, offset: 0x30E82, size: 0x8, addend: 0x0, symName: __ZNKSt3__16vectorIxNS_9allocatorIxEEE20__throw_length_errorB8ue170006Ev, symObjAddr: 0x743C, symBinAddr: 0x10000B578, symSize: 0x14 }
  - { offsetInCU: 0x30EAB, offset: 0x30EAB, size: 0x8, addend: 0x0, symName: __ZNKSt3__16vectorIiNS_9allocatorIiEEE20__throw_length_errorB8ue170006Ev, symObjAddr: 0x7450, symBinAddr: 0x10000B58C, symSize: 0x14 }
  - { offsetInCU: 0x3126C, offset: 0x3126C, size: 0x8, addend: 0x0, symName: __ZNKSt3__16vectorIN7atcoder13static_modintILi754974721ELPv0EEENS_9allocatorIS4_EEE20__throw_length_errorB8ue170006Ev, symObjAddr: 0x3964, symBinAddr: 0x100007AA0, symSize: 0x14 }
  - { offsetInCU: 0x31295, offset: 0x31295, size: 0x8, addend: 0x0, symName: __ZN7atcoder8internal17convolution_naiveINS_13static_modintILi754974721ELPv0EEELS3_0EEENSt3__16vectorIT_NS5_9allocatorIS7_EEEERKSA_SC_, symObjAddr: 0x3978, symBinAddr: 0x100007AB4, symSize: 0x47C }
  - { offsetInCU: 0x31631, offset: 0x31631, size: 0x8, addend: 0x0, symName: __ZNKSt3__16vectorIN7atcoder13static_modintILi167772161ELPv0EEENS_9allocatorIS4_EEE20__throw_length_errorB8ue170006Ev, symObjAddr: 0x4D90, symBinAddr: 0x100008ECC, symSize: 0x14 }
  - { offsetInCU: 0x3165A, offset: 0x3165A, size: 0x8, addend: 0x0, symName: __ZN7atcoder8internal17convolution_naiveINS_13static_modintILi167772161ELPv0EEELS3_0EEENSt3__16vectorIT_NS5_9allocatorIS7_EEEERKSA_SC_, symObjAddr: 0x4DA4, symBinAddr: 0x100008EE0, symSize: 0x47C }
  - { offsetInCU: 0x319F6, offset: 0x319F6, size: 0x8, addend: 0x0, symName: __ZNKSt3__16vectorIN7atcoder13static_modintILi469762049ELPv0EEENS_9allocatorIS4_EEE20__throw_length_errorB8ue170006Ev, symObjAddr: 0x61AC, symBinAddr: 0x10000A2E8, symSize: 0x14 }
  - { offsetInCU: 0x31A1F, offset: 0x31A1F, size: 0x8, addend: 0x0, symName: __ZN7atcoder8internal17convolution_naiveINS_13static_modintILi469762049ELPv0EEELS3_0EEENSt3__16vectorIT_NS5_9allocatorIS7_EEEERKSA_SC_, symObjAddr: 0x61C0, symBinAddr: 0x10000A2FC, symSize: 0x47C }
  - { offsetInCU: 0x31ADE, offset: 0x31ADE, size: 0x8, addend: 0x0, symName: __ZN7atcoder7pow_modExxi.cold.1, symObjAddr: 0xAFD4, symBinAddr: 0x10000F1CC, symSize: 0x28 }
  - { offsetInCU: 0x31B13, offset: 0x31B13, size: 0x8, addend: 0x0, symName: __ZN7atcoder7inv_modExx.cold.1, symObjAddr: 0xAFFC, symBinAddr: 0x10000F1F4, symSize: 0x28 }
  - { offsetInCU: 0x31B2B, offset: 0x31B2B, size: 0x8, addend: 0x0, symName: __ZN7atcoder7inv_modExx.cold.2, symObjAddr: 0xB024, symBinAddr: 0x10000F21C, symSize: 0x28 }
  - { offsetInCU: 0x31B43, offset: 0x31B43, size: 0x8, addend: 0x0, symName: __ZN7atcoder3crtERKNSt3__16vectorIxNS0_9allocatorIxEEEES6_.cold.1, symObjAddr: 0xB04C, symBinAddr: 0x10000F244, symSize: 0x28 }
  - { offsetInCU: 0x31B5B, offset: 0x31B5B, size: 0x8, addend: 0x0, symName: __ZN7atcoder3crtERKNSt3__16vectorIxNS0_9allocatorIxEEEES6_.cold.2, symObjAddr: 0xB074, symBinAddr: 0x10000F26C, symSize: 0x28 }
  - { offsetInCU: 0x31B73, offset: 0x31B73, size: 0x8, addend: 0x0, symName: __ZN7atcoder9floor_sumExxxx.cold.1, symObjAddr: 0xB09C, symBinAddr: 0x10000F294, symSize: 0x28 }
  - { offsetInCU: 0x31B8B, offset: 0x31B8B, size: 0x8, addend: 0x0, symName: __ZN7atcoder9floor_sumExxxx.cold.2, symObjAddr: 0xB0C4, symBinAddr: 0x10000F2BC, symSize: 0x28 }
  - { offsetInCU: 0x31E72, offset: 0x31E72, size: 0x8, addend: 0x0, symName: __ZNKSt3__16vectorIiNS_9allocatorIiEEE20__throw_length_errorB8ue170006Ev, symObjAddr: 0x7450, symBinAddr: 0x10000B58C, symSize: 0x14 }
  - { offsetInCU: 0x31E9B, offset: 0x31E9B, size: 0x8, addend: 0x0, symName: '__ZNSt3__111__introsortINS_17_ClassicAlgPolicyERZN7atcoder8internal8sa_naiveERKNS_6vectorIiNS_9allocatorIiEEEEE3$_0PiLb0EEEvT1_SD_T0_NS_15iterator_traitsISD_E15difference_typeEb', symObjAddr: 0x7464, symBinAddr: 0x10000B5A0, symSize: 0x10DC }
  - { offsetInCU: 0x31EC0, offset: 0x31EC0, size: 0x8, addend: 0x0, symName: __ZNSt3__16vectorIiNS_9allocatorIiEEED1B8ue170006Ev, symObjAddr: 0x12E0, symBinAddr: 0x10000541C, symSize: 0x30 }
  - { offsetInCU: 0x3228F, offset: 0x3228F, size: 0x8, addend: 0x0, symName: __ZN7atcoder12suffix_arrayERKNSt3__16vectorIiNS0_9allocatorIiEEEEi.cold.2, symObjAddr: 0xB114, symBinAddr: 0x10000F30C, symSize: 0x28 }
  - { offsetInCU: 0x322A7, offset: 0x322A7, size: 0x8, addend: 0x0, symName: __ZN7atcoder12suffix_arrayERKNSt3__16vectorIiNS0_9allocatorIiEEEEi.cold.1, symObjAddr: 0xB0EC, symBinAddr: 0x10000F2E4, symSize: 0x28 }
  - { offsetInCU: 0x32A95, offset: 0x32A95, size: 0x8, addend: 0x0, symName: __ZZN7atcoder8internal5sa_isILi10ELi40EEENSt3__16vectorIiNS2_9allocatorIiEEEERKS6_iENKUlS8_E_clES8_, symObjAddr: 0xA6D0, symBinAddr: 0x10000E80C, symSize: 0x2C4 }
  - { offsetInCU: 0x336AC, offset: 0x336AC, size: 0x8, addend: 0x0, symName: __ZN7atcoder9lcp_arrayIiEENSt3__16vectorIiNS1_9allocatorIiEEEERKNS2_IT_NS3_IS6_EEEERKS5_.cold.1, symObjAddr: 0xB13C, symBinAddr: 0x10000F334, symSize: 0x28 }
  - { offsetInCU: 0x33851, offset: 0x33851, size: 0x8, addend: 0x0, symName: __Z7toUpperNSt3__112basic_stringIcNS_11char_traitsIcEENS_9allocatorIcEEEE, symObjAddr: 0x2B6C, symBinAddr: 0x100006CA8, symSize: 0x78 }
  - { offsetInCU: 0x339F0, offset: 0x339F0, size: 0x8, addend: 0x0, symName: __Z7toLowerNSt3__112basic_stringIcNS_11char_traitsIcEENS_9allocatorIcEEEE, symObjAddr: 0x2BE4, symBinAddr: 0x100006D20, symSize: 0x78 }
  - { offsetInCU: 0x33B70, offset: 0x33B70, size: 0x8, addend: 0x0, symName: __Z9sum_digiti, symObjAddr: 0x2C5C, symBinAddr: 0x100006D98, symSize: 0x44 }
  - { offsetInCU: 0x33C4C, offset: 0x33C4C, size: 0x8, addend: 0x0, symName: __Z6rotateNSt3__16vectorINS0_IiNS_9allocatorIiEEEENS1_IS3_EEEE, symObjAddr: 0x2CA0, symBinAddr: 0x100006DDC, symSize: 0x108 }
  - { offsetInCU: 0x33E0B, offset: 0x33E0B, size: 0x8, addend: 0x0, symName: __ZNKSt3__16vectorIiNS_9allocatorIiEEE20__throw_out_of_rangeB8ue170006Ev, symObjAddr: 0xAA1C, symBinAddr: 0x10000EB58, symSize: 0x14 }
  - { offsetInCU: 0x33E34, offset: 0x33E34, size: 0x8, addend: 0x0, symName: __ZNKSt3__112basic_stringIcNS_11char_traitsIcEENS_9allocatorIcEEE20__throw_out_of_rangeB8ue170006Ev, symObjAddr: 0xAA30, symBinAddr: 0x10000EB6C, symSize: 0x14 }
  - { offsetInCU: 0x33E3F, offset: 0x33E3F, size: 0x8, addend: 0x0, symName: __ZNKSt3__16vectorINS0_IiNS_9allocatorIiEEEENS1_IS3_EEE20__throw_out_of_rangeB8ue170006Ev, symObjAddr: 0xA994, symBinAddr: 0x10000EAD0, symSize: 0x14 }
  - { offsetInCU: 0x33E68, offset: 0x33E68, size: 0x8, addend: 0x0, symName: __ZNSt3__120__throw_out_of_rangeB8ue170006EPKc, symObjAddr: 0xA9A8, symBinAddr: 0x10000EAE4, symSize: 0x50 }
  - { offsetInCU: 0x33E73, offset: 0x33E73, size: 0x8, addend: 0x0, symName: __ZNSt3__16vectorINS0_IiNS_9allocatorIiEEEENS1_IS3_EEED1B8ue170006Ev, symObjAddr: 0x2DA8, symBinAddr: 0x100006EE4, symSize: 0x74 }
  - { offsetInCU: 0x3486D, offset: 0x3486D, size: 0x8, addend: 0x0, symName: __Z10PalindromeNSt3__112basic_stringIcNS_11char_traitsIcEENS_9allocatorIcEEEE, symObjAddr: 0x2E1C, symBinAddr: 0x100006F58, symSize: 0x2EC }
  - { offsetInCU: 0x35540, offset: 0x35540, size: 0x8, addend: 0x0, symName: __ZNSt3__16vectorINS_12basic_stringIcNS_11char_traitsIcEENS_9allocatorIcEEEENS4_IS6_EEE21__push_back_slow_pathIRKS6_EEvOT_, symObjAddr: 0xAA44, symBinAddr: 0x10000EB80, symSize: 0x20C }
  - { offsetInCU: 0x35F78, offset: 0x35F78, size: 0x8, addend: 0x0, symName: __ZNKSt3__112basic_stringIcNS_11char_traitsIcEENS_9allocatorIcEEE20__throw_out_of_rangeB8ue170006Ev, symObjAddr: 0xAA30, symBinAddr: 0x10000EB6C, symSize: 0x14 }
  - { offsetInCU: 0x35FA1, offset: 0x35FA1, size: 0x8, addend: 0x0, symName: __ZNSt3__16vectorINS_12basic_stringIcNS_11char_traitsIcEENS_9allocatorIcEEEENS4_IS6_EEE21__push_back_slow_pathIRKS6_EEvOT_, symObjAddr: 0xAA44, symBinAddr: 0x10000EB80, symSize: 0x20C }
  - { offsetInCU: 0x35FAC, offset: 0x35FAC, size: 0x8, addend: 0x0, symName: __ZNKSt3__112basic_stringIcNS_11char_traitsIcEENS_9allocatorIcEEE20__throw_length_errorB8ue170006Ev, symObjAddr: 0x3728, symBinAddr: 0x100007864, symSize: 0x14 }
  - { offsetInCU: 0x35FD5, offset: 0x35FD5, size: 0x8, addend: 0x0, symName: __ZNSt3__120__throw_length_errorB8ue170006EPKc, symObjAddr: 0x373C, symBinAddr: 0x100007878, symSize: 0x50 }
  - { offsetInCU: 0x35FE0, offset: 0x35FE0, size: 0x8, addend: 0x0, symName: __Z10PalindromeNSt3__112basic_stringIcNS_11char_traitsIcEENS_9allocatorIcEEEE.cold.1, symObjAddr: 0xB164, symBinAddr: 0x10000F35C, symSize: 0x68 }
  - { offsetInCU: 0x36747, offset: 0x36747, size: 0x8, addend: 0x0, symName: _main, symObjAddr: 0x3108, symBinAddr: 0x100007244, symSize: 0x3EC }
  - { offsetInCU: 0x3782C, offset: 0x3782C, size: 0x8, addend: 0x0, symName: __ZNKSt3__16vectorIcNS_9allocatorIcEEE20__throw_length_errorB8ue170006Ev, symObjAddr: 0xACC8, symBinAddr: 0x10000EE04, symSize: 0x14 }
  - { offsetInCU: 0x37855, offset: 0x37855, size: 0x8, addend: 0x0, symName: __ZNSt3__124__put_character_sequenceB8ue170006IcNS_11char_traitsIcEEEERNS_13basic_ostreamIT_T0_EES7_PKS4_m, symObjAddr: 0xACDC, symBinAddr: 0x10000EE18, symSize: 0x164 }
  - { offsetInCU: 0x37AD0, offset: 0x37AD0, size: 0x8, addend: 0x0, symName: __ZNSt12length_errorC1B8ue170006EPKc, symObjAddr: 0x378C, symBinAddr: 0x1000078C8, symSize: 0x24 }
  - { offsetInCU: 0x37F1A, offset: 0x37F1A, size: 0x8, addend: 0x0, symName: __ZNSt3__16vectorIN7atcoder13static_modintILi754974721ELPv0EEENS_9allocatorIS4_EEE8__appendEm, symObjAddr: 0x48F0, symBinAddr: 0x100008A2C, symSize: 0x1A8 }
  - { offsetInCU: 0x383EC, offset: 0x383EC, size: 0x8, addend: 0x0, symName: __ZN7atcoder8internal8fft_infoINS_13static_modintILi754974721ELPv0EEELi11ELS3_0EEC2Ev, symObjAddr: 0x4A98, symBinAddr: 0x100008BD4, symSize: 0x16C }
  - { offsetInCU: 0x383F7, offset: 0x383F7, size: 0x8, addend: 0x0, symName: __ZN7atcoder8internal15convolution_fftINS_13static_modintILi754974721ELPv0EEELS3_0EEENSt3__16vectorIT_NS5_9allocatorIS7_EEEESA_SA_.cold.1, symObjAddr: 0xB1CC, symBinAddr: 0x10000F3C4, symSize: 0x24 }
  - { offsetInCU: 0x3851B, offset: 0x3851B, size: 0x8, addend: 0x0, symName: __ZN7atcoder8internal8fft_infoINS_13static_modintILi754974721ELPv0EEELi11ELS3_0EEC2Ev, symObjAddr: 0x4A98, symBinAddr: 0x100008BD4, symSize: 0x16C }
  - { offsetInCU: 0x38F82, offset: 0x38F82, size: 0x8, addend: 0x0, symName: __ZNSt3__16vectorIN7atcoder13static_modintILi167772161ELPv0EEENS_9allocatorIS4_EEE8__appendEm, symObjAddr: 0x5D1C, symBinAddr: 0x100009E58, symSize: 0x1A8 }
  - { offsetInCU: 0x39454, offset: 0x39454, size: 0x8, addend: 0x0, symName: __ZN7atcoder8internal8fft_infoINS_13static_modintILi167772161ELPv0EEELi3ELS3_0EEC2Ev, symObjAddr: 0x5EC4, symBinAddr: 0x10000A000, symSize: 0x15C }
  - { offsetInCU: 0x3945F, offset: 0x3945F, size: 0x8, addend: 0x0, symName: __ZN7atcoder8internal15convolution_fftINS_13static_modintILi167772161ELPv0EEELS3_0EEENSt3__16vectorIT_NS5_9allocatorIS7_EEEESA_SA_.cold.1, symObjAddr: 0xB1F0, symBinAddr: 0x10000F3E8, symSize: 0x24 }
  - { offsetInCU: 0x39583, offset: 0x39583, size: 0x8, addend: 0x0, symName: __ZN7atcoder8internal8fft_infoINS_13static_modintILi167772161ELPv0EEELi3ELS3_0EEC2Ev, symObjAddr: 0x5EC4, symBinAddr: 0x10000A000, symSize: 0x15C }
  - { offsetInCU: 0x39FE8, offset: 0x39FE8, size: 0x8, addend: 0x0, symName: __ZNSt3__16vectorIN7atcoder13static_modintILi469762049ELPv0EEENS_9allocatorIS4_EEE8__appendEm, symObjAddr: 0x7138, symBinAddr: 0x10000B274, symSize: 0x1A8 }
  - { offsetInCU: 0x3A4BA, offset: 0x3A4BA, size: 0x8, addend: 0x0, symName: __ZN7atcoder8internal8fft_infoINS_13static_modintILi469762049ELPv0EEELi3ELS3_0EEC2Ev, symObjAddr: 0x72E0, symBinAddr: 0x10000B41C, symSize: 0x15C }
  - { offsetInCU: 0x3A4C5, offset: 0x3A4C5, size: 0x8, addend: 0x0, symName: __ZN7atcoder8internal15convolution_fftINS_13static_modintILi469762049ELPv0EEELS3_0EEENSt3__16vectorIT_NS5_9allocatorIS7_EEEESA_SA_.cold.1, symObjAddr: 0xB214, symBinAddr: 0x10000F40C, symSize: 0x24 }
  - { offsetInCU: 0x3A5E9, offset: 0x3A5E9, size: 0x8, addend: 0x0, symName: __ZN7atcoder8internal8fft_infoINS_13static_modintILi469762049ELPv0EEELi3ELS3_0EEC2Ev, symObjAddr: 0x72E0, symBinAddr: 0x10000B41C, symSize: 0x15C }
  - { offsetInCU: 0x3AD6D, offset: 0x3AD6D, size: 0x8, addend: 0x0, symName: __ZNSt12out_of_rangeC1B8ue170006EPKc, symObjAddr: 0xA9F8, symBinAddr: 0x10000EB34, symSize: 0x24 }
  - { offsetInCU: 0x3B21E, offset: 0x3B21E, size: 0x8, addend: 0x0, symName: __ZNKSt3__16vectorINS_12basic_stringIcNS_11char_traitsIcEENS_9allocatorIcEEEENS4_IS6_EEE20__throw_length_errorB8ue170006Ev, symObjAddr: 0xACB4, symBinAddr: 0x10000EDF0, symSize: 0x14 }
  - { offsetInCU: 0x3B247, offset: 0x3B247, size: 0x8, addend: 0x0, symName: __ZNKSt3__16vectorIcNS_9allocatorIcEEE20__throw_length_errorB8ue170006Ev, symObjAddr: 0xACC8, symBinAddr: 0x10000EE04, symSize: 0x14 }
  - { offsetInCU: 0x3B252, offset: 0x3B252, size: 0x8, addend: 0x0, symName: __ZNSt3__114__split_bufferINS_12basic_stringIcNS_11char_traitsIcEENS_9allocatorIcEEEERNS4_IS6_EEED1Ev, symObjAddr: 0xAC50, symBinAddr: 0x10000ED8C, symSize: 0x64 }
  - { offsetInCU: 0x3B70E, offset: 0x3B70E, size: 0x8, addend: 0x0, symName: _OUTLINED_FUNCTION_0, symObjAddr: 0xB238, symBinAddr: 0x10000F110, symSize: 0x8 }
...
