---
triple:          'arm64-apple-darwin'
binary-path:     '/Users/yuuta/Desktop/docker_images/atcoder/abc/abc331/b/abc331_b.out'
relocations:
  - { offsetInCU: 0x38, offset: 0x38, size: 0x8, addend: 0x0, symName: __ZN7atcoder14convolution_llERKNSt3__16vectorIxNS0_9allocatorIxEEEES6_, symObjAddr: 0x9C, symBinAddr: 0x100000D28, symSize: 0x2F8 }
  - { offsetInCU: 0xDB, offset: 0xDB, size: 0x8, addend: 0x0, symName: __ZZN7atcoder14convolution_llERKNSt3__16vectorIxNS0_9allocatorIxEEEES6_E6offset, symObjAddr: 0xAD00, symBinAddr: 0x10000BBA0, symSize: 0x0 }
  - { offsetInCU: 0xD0A, offset: 0xD0A, size: 0x8, addend: 0x0, symName: __ZN7atcoder8internal9butterflyINS_13static_modintILi754974721ELPv0EEELS3_0EEEvRNSt3__16vectorIT_NS5_9allocatorIS7_EEEE, symObjAddr: 0x3C40, symBinAddr: 0x1000048CC, symSize: 0x3C0 }
  - { offsetInCU: 0xD2F, offset: 0xD2F, size: 0x8, addend: 0x0, symName: __ZZN7atcoder8internal9butterflyINS_13static_modintILi754974721ELPv0EEELS3_0EEEvRNSt3__16vectorIT_NS5_9allocatorIS7_EEEEE4info, symObjAddr: 0xAF30, symBinAddr: 0x100010000, symSize: 0x0 }
  - { offsetInCU: 0x13C6, offset: 0x13C6, size: 0x8, addend: 0x0, symName: __ZN7atcoder8internal13butterfly_invINS_13static_modintILi754974721ELPv0EEELS3_0EEEvRNSt3__16vectorIT_NS5_9allocatorIS7_EEEE, symObjAddr: 0x4000, symBinAddr: 0x100004C8C, symSize: 0x344 }
  - { offsetInCU: 0x13EB, offset: 0x13EB, size: 0x8, addend: 0x0, symName: __ZZN7atcoder8internal13butterfly_invINS_13static_modintILi754974721ELPv0EEELS3_0EEEvRNSt3__16vectorIT_NS5_9allocatorIS7_EEEEE4info, symObjAddr: 0xB168, symBinAddr: 0x100010238, symSize: 0x0 }
  - { offsetInCU: 0x1941, offset: 0x1941, size: 0x8, addend: 0x0, symName: __ZN7atcoder8internal9butterflyINS_13static_modintILi167772161ELPv0EEELS3_0EEEvRNSt3__16vectorIT_NS5_9allocatorIS7_EEEE, symObjAddr: 0x5154, symBinAddr: 0x100005DE0, symSize: 0x3C0 }
  - { offsetInCU: 0x1966, offset: 0x1966, size: 0x8, addend: 0x0, symName: __ZZN7atcoder8internal9butterflyINS_13static_modintILi167772161ELPv0EEELS3_0EEEvRNSt3__16vectorIT_NS5_9allocatorIS7_EEEEE4info, symObjAddr: 0xB3A0, symBinAddr: 0x100010470, symSize: 0x0 }
  - { offsetInCU: 0x1FE3, offset: 0x1FE3, size: 0x8, addend: 0x0, symName: __ZN7atcoder8internal13butterfly_invINS_13static_modintILi167772161ELPv0EEELS3_0EEEvRNSt3__16vectorIT_NS5_9allocatorIS7_EEEE, symObjAddr: 0x5514, symBinAddr: 0x1000061A0, symSize: 0x344 }
  - { offsetInCU: 0x2008, offset: 0x2008, size: 0x8, addend: 0x0, symName: __ZZN7atcoder8internal13butterfly_invINS_13static_modintILi167772161ELPv0EEELS3_0EEEvRNSt3__16vectorIT_NS5_9allocatorIS7_EEEEE4info, symObjAddr: 0xB5F0, symBinAddr: 0x1000106C0, symSize: 0x0 }
  - { offsetInCU: 0x255E, offset: 0x255E, size: 0x8, addend: 0x0, symName: __ZN7atcoder8internal9butterflyINS_13static_modintILi469762049ELPv0EEELS3_0EEEvRNSt3__16vectorIT_NS5_9allocatorIS7_EEEE, symObjAddr: 0x6658, symBinAddr: 0x1000072E4, symSize: 0x3C0 }
  - { offsetInCU: 0x2583, offset: 0x2583, size: 0x8, addend: 0x0, symName: __ZZN7atcoder8internal9butterflyINS_13static_modintILi469762049ELPv0EEELS3_0EEEvRNSt3__16vectorIT_NS5_9allocatorIS7_EEEEE4info, symObjAddr: 0xB840, symBinAddr: 0x100010910, symSize: 0x0 }
  - { offsetInCU: 0x2C01, offset: 0x2C01, size: 0x8, addend: 0x0, symName: __ZN7atcoder8internal13butterfly_invINS_13static_modintILi469762049ELPv0EEELS3_0EEEvRNSt3__16vectorIT_NS5_9allocatorIS7_EEEE, symObjAddr: 0x6A18, symBinAddr: 0x1000076A4, symSize: 0x344 }
  - { offsetInCU: 0x2C26, offset: 0x2C26, size: 0x8, addend: 0x0, symName: __ZZN7atcoder8internal13butterfly_invINS_13static_modintILi469762049ELPv0EEELS3_0EEEvRNSt3__16vectorIT_NS5_9allocatorIS7_EEEEE4info, symObjAddr: 0xBAA8, symBinAddr: 0x100010B78, symSize: 0x0 }
  - { offsetInCU: 0x317C, offset: 0x317C, size: 0x8, addend: 0x0, symName: __ZN7atcoder8internal9ceil_pow2Ei, symObjAddr: 0x0, symBinAddr: 0x100000C8C, symSize: 0x20 }
  - { offsetInCU: 0x31A2, offset: 0x31A2, size: 0x8, addend: 0x0, symName: __ZN7atcoder8internal3bsfEj, symObjAddr: 0x20, symBinAddr: 0x100000CAC, symSize: 0xC }
  - { offsetInCU: 0x31BF, offset: 0x31BF, size: 0x8, addend: 0x0, symName: __ZN7atcoder8internal18floor_sum_unsignedEyyyy, symObjAddr: 0x2C, symBinAddr: 0x100000CB8, symSize: 0x70 }
  - { offsetInCU: 0x3364, offset: 0x3364, size: 0x8, addend: 0x0, symName: __ZN7atcoder8internal8sa_naiveERKNSt3__16vectorIiNS1_9allocatorIiEEEE, symObjAddr: 0x115C, symBinAddr: 0x100001DE8, symSize: 0x180 }
  - { offsetInCU: 0x380D, offset: 0x380D, size: 0x8, addend: 0x0, symName: __ZN7atcoder8internal11sa_doublingERKNSt3__16vectorIiNS1_9allocatorIiEEEE, symObjAddr: 0x130C, symBinAddr: 0x100001F98, symSize: 0x3EC }
  - { offsetInCU: 0x4608, offset: 0x4608, size: 0x8, addend: 0x0, symName: __ZN7atcoder8internal5sa_isILi10ELi40EEENSt3__16vectorIiNS2_9allocatorIiEEEERKS6_i, symObjAddr: 0x173C, symBinAddr: 0x1000023C8, symSize: 0xB0C }
  - { offsetInCU: 0x7764, offset: 0x7764, size: 0x8, addend: 0x0, symName: __ZN7atcoder8internal17convolution_naiveINS_13static_modintILi754974721ELPv0EEELS3_0EEENSt3__16vectorIT_NS5_9allocatorIS7_EEEERKSA_SC_, symObjAddr: 0x33CC, symBinAddr: 0x100004058, symSize: 0x47C }
  - { offsetInCU: 0x7C08, offset: 0x7C08, size: 0x8, addend: 0x0, symName: __ZN7atcoder8internal15convolution_fftINS_13static_modintILi754974721ELPv0EEELS3_0EEENSt3__16vectorIT_NS5_9allocatorIS7_EEEESA_SA_, symObjAddr: 0x3848, symBinAddr: 0x1000044D4, symSize: 0x3F8 }
  - { offsetInCU: 0x807B, offset: 0x807B, size: 0x8, addend: 0x0, symName: __ZN7atcoder8internal9butterflyINS_13static_modintILi754974721ELPv0EEELS3_0EEEvRNSt3__16vectorIT_NS5_9allocatorIS7_EEEE, symObjAddr: 0x3C40, symBinAddr: 0x1000048CC, symSize: 0x3C0 }
  - { offsetInCU: 0x80D7, offset: 0x80D7, size: 0x8, addend: 0x0, symName: __ZN7atcoder8internal17convolution_naiveINS_13static_modintILi167772161ELPv0EEELS3_0EEENSt3__16vectorIT_NS5_9allocatorIS7_EEEERKSA_SC_, symObjAddr: 0x48E0, symBinAddr: 0x10000556C, symSize: 0x47C }
  - { offsetInCU: 0x857B, offset: 0x857B, size: 0x8, addend: 0x0, symName: __ZN7atcoder8internal15convolution_fftINS_13static_modintILi167772161ELPv0EEELS3_0EEENSt3__16vectorIT_NS5_9allocatorIS7_EEEESA_SA_, symObjAddr: 0x4D5C, symBinAddr: 0x1000059E8, symSize: 0x3F8 }
  - { offsetInCU: 0x89EE, offset: 0x89EE, size: 0x8, addend: 0x0, symName: __ZN7atcoder8internal9butterflyINS_13static_modintILi167772161ELPv0EEELS3_0EEEvRNSt3__16vectorIT_NS5_9allocatorIS7_EEEE, symObjAddr: 0x5154, symBinAddr: 0x100005DE0, symSize: 0x3C0 }
  - { offsetInCU: 0x8A07, offset: 0x8A07, size: 0x8, addend: 0x0, symName: __ZN7atcoder8internal17convolution_naiveINS_13static_modintILi469762049ELPv0EEELS3_0EEENSt3__16vectorIT_NS5_9allocatorIS7_EEEERKSA_SC_, symObjAddr: 0x5DE4, symBinAddr: 0x100006A70, symSize: 0x47C }
  - { offsetInCU: 0x8EAB, offset: 0x8EAB, size: 0x8, addend: 0x0, symName: __ZN7atcoder8internal15convolution_fftINS_13static_modintILi469762049ELPv0EEELS3_0EEENSt3__16vectorIT_NS5_9allocatorIS7_EEEESA_SA_, symObjAddr: 0x6260, symBinAddr: 0x100006EEC, symSize: 0x3F8 }
  - { offsetInCU: 0x931E, offset: 0x931E, size: 0x8, addend: 0x0, symName: __ZN7atcoder8internal9butterflyINS_13static_modintILi469762049ELPv0EEELS3_0EEEvRNSt3__16vectorIT_NS5_9allocatorIS7_EEEE, symObjAddr: 0x6658, symBinAddr: 0x1000072E4, symSize: 0x3C0 }
  - { offsetInCU: 0x999B, offset: 0x999B, size: 0x8, addend: 0x0, symName: __ZN7atcoder11convolutionILj754974721ExLPv0EEENSt3__16vectorIT0_NS2_9allocatorIS4_EEEERKS7_S9_, symObjAddr: 0x394, symBinAddr: 0x100001020, symSize: 0x360 }
  - { offsetInCU: 0xA7C1, offset: 0xA7C1, size: 0x8, addend: 0x0, symName: __ZN7atcoder11convolutionILj167772161ExLPv0EEENSt3__16vectorIT0_NS2_9allocatorIS4_EEEERKS7_S9_, symObjAddr: 0x6F4, symBinAddr: 0x100001380, symSize: 0x360 }
  - { offsetInCU: 0xB5E6, offset: 0xB5E6, size: 0x8, addend: 0x0, symName: __ZN7atcoder11convolutionILj469762049ExLPv0EEENSt3__16vectorIT0_NS2_9allocatorIS4_EEEERKS7_S9_, symObjAddr: 0xA54, symBinAddr: 0x1000016E0, symSize: 0x360 }
  - { offsetInCU: 0xC40C, offset: 0xC40C, size: 0x8, addend: 0x0, symName: __ZN7atcoder11convolutionINS_13static_modintILi754974721ELPv0EEELS2_0EEENSt3__16vectorIT_NS4_9allocatorIS6_EEEEOS9_SA_, symObjAddr: 0x30A8, symBinAddr: 0x100003D34, symSize: 0x274 }
  - { offsetInCU: 0xCBD8, offset: 0xCBD8, size: 0x8, addend: 0x0, symName: __ZN7atcoder11convolutionINS_13static_modintILi167772161ELPv0EEELS2_0EEENSt3__16vectorIT_NS4_9allocatorIS6_EEEEOS9_SA_, symObjAddr: 0x4658, symBinAddr: 0x1000052E4, symSize: 0x274 }
  - { offsetInCU: 0xD3A4, offset: 0xD3A4, size: 0x8, addend: 0x0, symName: __ZN7atcoder11convolutionINS_13static_modintILi469762049ELPv0EEELS2_0EEENSt3__16vectorIT_NS4_9allocatorIS6_EEEEOS9_SA_, symObjAddr: 0x5B5C, symBinAddr: 0x1000067E8, symSize: 0x274 }
  - { offsetInCU: 0xDB70, offset: 0xDB70, size: 0x8, addend: 0x0, symName: __ZN7atcoder7pow_modExxi, symObjAddr: 0xDB4, symBinAddr: 0x100001A40, symSize: 0xB8 }
  - { offsetInCU: 0xDCA2, offset: 0xDCA2, size: 0x8, addend: 0x0, symName: __ZN7atcoder7inv_modExx, symObjAddr: 0xE6C, symBinAddr: 0x100001AF8, symSize: 0x78 }
  - { offsetInCU: 0xDCAC, offset: 0xDCAC, size: 0x8, addend: 0x0, symName: __ZN7atcoder7inv_modExx, symObjAddr: 0xE6C, symBinAddr: 0x100001AF8, symSize: 0x78 }
  - { offsetInCU: 0xDD8C, offset: 0xDD8C, size: 0x8, addend: 0x0, symName: __ZN7atcoder3crtERKNSt3__16vectorIxNS0_9allocatorIxEEEES6_, symObjAddr: 0xEE4, symBinAddr: 0x100001B70, symSize: 0x16C }
  - { offsetInCU: 0xDD96, offset: 0xDD96, size: 0x8, addend: 0x0, symName: __ZN7atcoder3crtERKNSt3__16vectorIxNS0_9allocatorIxEEEES6_, symObjAddr: 0xEE4, symBinAddr: 0x100001B70, symSize: 0x16C }
  - { offsetInCU: 0xDF5E, offset: 0xDF5E, size: 0x8, addend: 0x0, symName: __ZN7atcoder9floor_sumExxxx, symObjAddr: 0x1050, symBinAddr: 0x100001CDC, symSize: 0x10C }
  - { offsetInCU: 0xDF68, offset: 0xDF68, size: 0x8, addend: 0x0, symName: __ZN7atcoder9floor_sumExxxx, symObjAddr: 0x1050, symBinAddr: 0x100001CDC, symSize: 0x10C }
  - { offsetInCU: 0xE0AE, offset: 0xE0AE, size: 0x8, addend: 0x0, symName: __ZN7atcoder8internal8sa_naiveERKNSt3__16vectorIiNS1_9allocatorIiEEEE, symObjAddr: 0x115C, symBinAddr: 0x100001DE8, symSize: 0x180 }
  - { offsetInCU: 0xE0B8, offset: 0xE0B8, size: 0x8, addend: 0x0, symName: __ZN7atcoder12suffix_arrayERKNSt3__16vectorIiNS0_9allocatorIiEEEEi, symObjAddr: 0x16F8, symBinAddr: 0x100002384, symSize: 0x44 }
  - { offsetInCU: 0xE191, offset: 0xE191, size: 0x8, addend: 0x0, symName: __ZN7atcoder8internal5sa_isILi10ELi40EEENSt3__16vectorIiNS2_9allocatorIiEEEERKS6_i, symObjAddr: 0x173C, symBinAddr: 0x1000023C8, symSize: 0xB0C }
  - { offsetInCU: 0xE19B, offset: 0xE19B, size: 0x8, addend: 0x0, symName: __ZN7atcoder12suffix_arrayERKNSt3__112basic_stringIcNS0_11char_traitsIcEENS0_9allocatorIcEEEE, symObjAddr: 0x2248, symBinAddr: 0x100002ED4, symSize: 0x200 }
  - { offsetInCU: 0xE551, offset: 0xE551, size: 0x8, addend: 0x0, symName: __ZN7atcoder9lcp_arrayERKNSt3__112basic_stringIcNS0_11char_traitsIcEENS0_9allocatorIcEEEERKNS0_6vectorIiNS4_IiEEEE, symObjAddr: 0x2448, symBinAddr: 0x1000030D4, symSize: 0x20C }
  - { offsetInCU: 0xE915, offset: 0xE915, size: 0x8, addend: 0x0, symName: __ZN7atcoder9lcp_arrayIiEENSt3__16vectorIiNS1_9allocatorIiEEEERKNS2_IT_NS3_IS6_EEEERKS5_, symObjAddr: 0x2654, symBinAddr: 0x1000032E0, symSize: 0x214 }
  - { offsetInCU: 0xF0F1, offset: 0xF0F1, size: 0x8, addend: 0x0, symName: __ZN7atcoder11z_algorithmERKNSt3__112basic_stringIcNS0_11char_traitsIcEENS0_9allocatorIcEEEE, symObjAddr: 0x2868, symBinAddr: 0x1000034F4, symSize: 0x1FC }
  - { offsetInCU: 0xF4A8, offset: 0xF4A8, size: 0x8, addend: 0x0, symName: __ZN7atcoder11z_algorithmIiEENSt3__16vectorIiNS1_9allocatorIiEEEERKNS2_IT_NS3_IS6_EEEE, symObjAddr: 0x2A64, symBinAddr: 0x1000036F0, symSize: 0x184 }
  - { offsetInCU: 0xFA5A, offset: 0xFA5A, size: 0x8, addend: 0x0, symName: _dj, symObjAddr: 0xC1A08, symBinAddr: 0x100010DE0, symSize: 0x0 }
  - { offsetInCU: 0x1D46E, offset: 0x1D46E, size: 0x8, addend: 0x0, symName: '__ZNSt3__111__introsortINS_17_ClassicAlgPolicyERZN7atcoder8internal8sa_naiveERKNS_6vectorIiNS_9allocatorIiEEEEE3$_0PiEEvT1_SD_T0_NS_15iterator_traitsISD_E15difference_typeE', symObjAddr: 0x7088, symBinAddr: 0x100007D14, symSize: 0xD78 }
  - { offsetInCU: 0x1E0B1, offset: 0x1E0B1, size: 0x8, addend: 0x0, symName: '__ZNSt3__127__insertion_sort_incompleteIRZN7atcoder8internal8sa_naiveERKNS_6vectorIiNS_9allocatorIiEEEEE3$_0PiEEbT0_SC_T_', symObjAddr: 0x82DC, symBinAddr: 0x100008F68, symSize: 0x2AC }
  - { offsetInCU: 0x1E41A, offset: 0x1E41A, size: 0x8, addend: 0x0, symName: '__ZNSt3__111__introsortINS_17_ClassicAlgPolicyERZN7atcoder8internal11sa_doublingERKNS_6vectorIiNS_9allocatorIiEEEEE3$_1PiEEvT1_SD_T0_NS_15iterator_traitsISD_E15difference_typeE', symObjAddr: 0x875C, symBinAddr: 0x1000093E8, symSize: 0xCCC }
  - { offsetInCU: 0x1F179, offset: 0x1F179, size: 0x8, addend: 0x0, symName: '__ZNSt3__127__insertion_sort_incompleteIRZN7atcoder8internal11sa_doublingERKNS_6vectorIiNS_9allocatorIiEEEEE3$_1PiEEbT0_SC_T_', symObjAddr: 0x98C4, symBinAddr: 0x10000A550, symSize: 0x2B8 }
  - { offsetInCU: 0x2229C, offset: 0x2229C, size: 0x8, addend: 0x0, symName: __ZNSt3__124__put_character_sequenceB7v160006IcNS_11char_traitsIcEEEERNS_13basic_ostreamIT_T0_EES7_PKS4_m, symObjAddr: 0xA284, symBinAddr: 0x10000AF10, symSize: 0x164 }
  - { offsetInCU: 0x25408, offset: 0x25408, size: 0x8, addend: 0x0, symName: __ZNSt3__120__throw_length_errorB7v160006EPKc, symObjAddr: 0x3330, symBinAddr: 0x100003FBC, symSize: 0x50 }
  - { offsetInCU: 0x263EF, offset: 0x263EF, size: 0x8, addend: 0x0, symName: '__ZNSt3__119__sort5_wrap_policyB7v160006INS_17_ClassicAlgPolicyERZN7atcoder8internal8sa_naiveERKNS_6vectorIiNS_9allocatorIiEEEEE3$_0PiEEjT1_SD_SD_SD_SD_T0_', symObjAddr: 0x7E00, symBinAddr: 0x100008A8C, symSize: 0x260 }
  - { offsetInCU: 0x2675D, offset: 0x2675D, size: 0x8, addend: 0x0, symName: '__ZNSt3__17__sort3B7v160006INS_17_ClassicAlgPolicyERZN7atcoder8internal8sa_naiveERKNS_6vectorIiNS_9allocatorIiEEEEE3$_0PiEEjT1_SD_SD_T0_', symObjAddr: 0x8060, symBinAddr: 0x100008CEC, symSize: 0x27C }
  - { offsetInCU: 0x26A8F, offset: 0x26A8F, size: 0x8, addend: 0x0, symName: '__ZNSt3__17__sort4B7v160006INS_17_ClassicAlgPolicyERZN7atcoder8internal8sa_naiveERKNS_6vectorIiNS_9allocatorIiEEEEE3$_0PiEEjT1_SD_SD_SD_T0_', symObjAddr: 0x8588, symBinAddr: 0x100009214, symSize: 0x1D4 }
  - { offsetInCU: 0x2730D, offset: 0x2730D, size: 0x8, addend: 0x0, symName: '__ZNSt3__119__sort5_wrap_policyB7v160006INS_17_ClassicAlgPolicyERZN7atcoder8internal11sa_doublingERKNS_6vectorIiNS_9allocatorIiEEEEE3$_1PiEEjT1_SD_SD_SD_SD_T0_', symObjAddr: 0x9428, symBinAddr: 0x10000A0B4, symSize: 0x238 }
  - { offsetInCU: 0x276B0, offset: 0x276B0, size: 0x8, addend: 0x0, symName: '__ZNSt3__17__sort3B7v160006INS_17_ClassicAlgPolicyERZN7atcoder8internal11sa_doublingERKNS_6vectorIiNS_9allocatorIiEEEEE3$_1PiEEjT1_SD_SD_T0_', symObjAddr: 0x9660, symBinAddr: 0x10000A2EC, symSize: 0x264 }
  - { offsetInCU: 0x27A35, offset: 0x27A35, size: 0x8, addend: 0x0, symName: '__ZNSt3__17__sort4B7v160006INS_17_ClassicAlgPolicyERZN7atcoder8internal11sa_doublingERKNS_6vectorIiNS_9allocatorIiEEEEE3$_1PiEEjT1_SD_SD_SD_T0_', symObjAddr: 0x9B7C, symBinAddr: 0x10000A808, symSize: 0x1BC }
  - { offsetInCU: 0x281C3, offset: 0x281C3, size: 0x8, addend: 0x0, symName: __ZNSt3__120__throw_out_of_rangeB7v160006EPKc, symObjAddr: 0x9FF8, symBinAddr: 0x10000AC84, symSize: 0x50 }
  - { offsetInCU: 0x28841, offset: 0x28841, size: 0x8, addend: 0x0, symName: __ZNSt3__116__pad_and_outputB7v160006IcNS_11char_traitsIcEEEENS_19ostreambuf_iteratorIT_T0_EES6_PKS4_S8_S8_RNS_8ios_baseES4_, symObjAddr: 0xA3E8, symBinAddr: 0x10000B074, symSize: 0x194 }
  - { offsetInCU: 0x2971B, offset: 0x2971B, size: 0x8, addend: 0x0, symName: __ZSt28__throw_bad_array_new_lengthB7v160006v, symObjAddr: 0x33A4, symBinAddr: 0x100004030, symSize: 0x28 }
  - { offsetInCU: 0x29991, offset: 0x29991, size: 0x8, addend: 0x0, symName: _di, symObjAddr: 0xC1A20, symBinAddr: 0x100010DF8, symSize: 0x0 }
  - { offsetInCU: 0x2D723, offset: 0x2D723, size: 0x8, addend: 0x0, symName: __ZNKSt3__16vectorIxNS_9allocatorIxEEE20__throw_length_errorB7v160006Ev, symObjAddr: 0x7060, symBinAddr: 0x100007CEC, symSize: 0x14 }
  - { offsetInCU: 0x2D74C, offset: 0x2D74C, size: 0x8, addend: 0x0, symName: __ZNKSt3__16vectorIiNS_9allocatorIiEEE20__throw_length_errorB7v160006Ev, symObjAddr: 0x7074, symBinAddr: 0x100007D00, symSize: 0x14 }
  - { offsetInCU: 0x2DB0D, offset: 0x2DB0D, size: 0x8, addend: 0x0, symName: __ZNKSt3__16vectorIN7atcoder13static_modintILi754974721ELPv0EEENS_9allocatorIS4_EEE20__throw_length_errorB7v160006Ev, symObjAddr: 0x331C, symBinAddr: 0x100003FA8, symSize: 0x14 }
  - { offsetInCU: 0x2DB36, offset: 0x2DB36, size: 0x8, addend: 0x0, symName: __ZNSt3__120__throw_length_errorB7v160006EPKc, symObjAddr: 0x3330, symBinAddr: 0x100003FBC, symSize: 0x50 }
  - { offsetInCU: 0x2DED2, offset: 0x2DED2, size: 0x8, addend: 0x0, symName: __ZNKSt3__16vectorIN7atcoder13static_modintILi167772161ELPv0EEENS_9allocatorIS4_EEE20__throw_length_errorB7v160006Ev, symObjAddr: 0x48CC, symBinAddr: 0x100005558, symSize: 0x14 }
  - { offsetInCU: 0x2DEFB, offset: 0x2DEFB, size: 0x8, addend: 0x0, symName: __ZN7atcoder8internal17convolution_naiveINS_13static_modintILi167772161ELPv0EEELS3_0EEENSt3__16vectorIT_NS5_9allocatorIS7_EEEERKSA_SC_, symObjAddr: 0x48E0, symBinAddr: 0x10000556C, symSize: 0x47C }
  - { offsetInCU: 0x2E297, offset: 0x2E297, size: 0x8, addend: 0x0, symName: __ZNKSt3__16vectorIN7atcoder13static_modintILi469762049ELPv0EEENS_9allocatorIS4_EEE20__throw_length_errorB7v160006Ev, symObjAddr: 0x5DD0, symBinAddr: 0x100006A5C, symSize: 0x14 }
  - { offsetInCU: 0x2E2C0, offset: 0x2E2C0, size: 0x8, addend: 0x0, symName: __ZN7atcoder8internal17convolution_naiveINS_13static_modintILi469762049ELPv0EEELS3_0EEENSt3__16vectorIT_NS5_9allocatorIS7_EEEERKSA_SC_, symObjAddr: 0x5DE4, symBinAddr: 0x100006A70, symSize: 0x47C }
  - { offsetInCU: 0x2E37F, offset: 0x2E37F, size: 0x8, addend: 0x0, symName: __ZN7atcoder7pow_modExxi.cold.1, symObjAddr: 0xA590, symBinAddr: 0x10000B2D8, symSize: 0x28 }
  - { offsetInCU: 0x2E3B4, offset: 0x2E3B4, size: 0x8, addend: 0x0, symName: __ZN7atcoder7inv_modExx.cold.1, symObjAddr: 0xA5B8, symBinAddr: 0x10000B300, symSize: 0x28 }
  - { offsetInCU: 0x2E3CC, offset: 0x2E3CC, size: 0x8, addend: 0x0, symName: __ZN7atcoder7inv_modExx.cold.2, symObjAddr: 0xA5E0, symBinAddr: 0x10000B328, symSize: 0x28 }
  - { offsetInCU: 0x2E3E4, offset: 0x2E3E4, size: 0x8, addend: 0x0, symName: __ZN7atcoder3crtERKNSt3__16vectorIxNS0_9allocatorIxEEEES6_.cold.1, symObjAddr: 0xA608, symBinAddr: 0x10000B350, symSize: 0x28 }
  - { offsetInCU: 0x2E3FC, offset: 0x2E3FC, size: 0x8, addend: 0x0, symName: __ZN7atcoder3crtERKNSt3__16vectorIxNS0_9allocatorIxEEEES6_.cold.2, symObjAddr: 0xA630, symBinAddr: 0x10000B378, symSize: 0x28 }
  - { offsetInCU: 0x2E414, offset: 0x2E414, size: 0x8, addend: 0x0, symName: __ZN7atcoder9floor_sumExxxx.cold.1, symObjAddr: 0xA658, symBinAddr: 0x10000B3A0, symSize: 0x28 }
  - { offsetInCU: 0x2E42C, offset: 0x2E42C, size: 0x8, addend: 0x0, symName: __ZN7atcoder9floor_sumExxxx.cold.2, symObjAddr: 0xA680, symBinAddr: 0x10000B3C8, symSize: 0x28 }
  - { offsetInCU: 0x2E713, offset: 0x2E713, size: 0x8, addend: 0x0, symName: __ZNKSt3__16vectorIiNS_9allocatorIiEEE20__throw_length_errorB7v160006Ev, symObjAddr: 0x7074, symBinAddr: 0x100007D00, symSize: 0x14 }
  - { offsetInCU: 0x2E73C, offset: 0x2E73C, size: 0x8, addend: 0x0, symName: '__ZNSt3__111__introsortINS_17_ClassicAlgPolicyERZN7atcoder8internal8sa_naiveERKNS_6vectorIiNS_9allocatorIiEEEEE3$_0PiEEvT1_SD_T0_NS_15iterator_traitsISD_E15difference_typeE', symObjAddr: 0x7088, symBinAddr: 0x100007D14, symSize: 0xD78 }
  - { offsetInCU: 0x2E761, offset: 0x2E761, size: 0x8, addend: 0x0, symName: __ZNSt3__16vectorIiNS_9allocatorIiEEED1B7v160006Ev, symObjAddr: 0x12DC, symBinAddr: 0x100001F68, symSize: 0x30 }
  - { offsetInCU: 0x2EAF2, offset: 0x2EAF2, size: 0x8, addend: 0x0, symName: __ZN7atcoder12suffix_arrayERKNSt3__16vectorIiNS0_9allocatorIiEEEEi.cold.2, symObjAddr: 0xA6D0, symBinAddr: 0x10000B418, symSize: 0x28 }
  - { offsetInCU: 0x2EB0A, offset: 0x2EB0A, size: 0x8, addend: 0x0, symName: __ZN7atcoder12suffix_arrayERKNSt3__16vectorIiNS0_9allocatorIiEEEEi.cold.1, symObjAddr: 0xA6A8, symBinAddr: 0x10000B3F0, symSize: 0x28 }
  - { offsetInCU: 0x2F30A, offset: 0x2F30A, size: 0x8, addend: 0x0, symName: __ZZN7atcoder8internal5sa_isILi10ELi40EEENSt3__16vectorIiNS2_9allocatorIiEEEERKS6_iENKUlS8_E_clES8_, symObjAddr: 0x9D38, symBinAddr: 0x10000A9C4, symSize: 0x2AC }
  - { offsetInCU: 0x2FE82, offset: 0x2FE82, size: 0x8, addend: 0x0, symName: __ZN7atcoder9lcp_arrayIiEENSt3__16vectorIiNS1_9allocatorIiEEEERKNS2_IT_NS3_IS6_EEEERKS5_.cold.1, symObjAddr: 0xA6F8, symBinAddr: 0x10000B440, symSize: 0x28 }
  - { offsetInCU: 0x2FEFC, offset: 0x2FEFC, size: 0x8, addend: 0x0, symName: __Z9sum_digiti, symObjAddr: 0x2BE8, symBinAddr: 0x100003874, symSize: 0x44 }
  - { offsetInCU: 0x2FFD8, offset: 0x2FFD8, size: 0x8, addend: 0x0, symName: __Z6rotateNSt3__16vectorINS0_IiNS_9allocatorIiEEEENS1_IS3_EEEE, symObjAddr: 0x2C2C, symBinAddr: 0x1000038B8, symSize: 0x108 }
  - { offsetInCU: 0x30197, offset: 0x30197, size: 0x8, addend: 0x0, symName: __ZNKSt3__16vectorIiNS_9allocatorIiEEE20__throw_out_of_rangeB7v160006Ev, symObjAddr: 0xA06C, symBinAddr: 0x10000ACF8, symSize: 0x14 }
  - { offsetInCU: 0x301C0, offset: 0x301C0, size: 0x8, addend: 0x0, symName: __ZNSt3__16vectorINS_12basic_stringIcNS_11char_traitsIcEENS_9allocatorIcEEEENS4_IS6_EEE21__push_back_slow_pathIRKS6_EEvOT_, symObjAddr: 0xA080, symBinAddr: 0x10000AD0C, symSize: 0x18C }
  - { offsetInCU: 0x301CB, offset: 0x301CB, size: 0x8, addend: 0x0, symName: __ZNKSt3__16vectorINS0_IiNS_9allocatorIiEEEENS1_IS3_EEE20__throw_out_of_rangeB7v160006Ev, symObjAddr: 0x9FE4, symBinAddr: 0x10000AC70, symSize: 0x14 }
  - { offsetInCU: 0x301F4, offset: 0x301F4, size: 0x8, addend: 0x0, symName: __ZNSt3__120__throw_out_of_rangeB7v160006EPKc, symObjAddr: 0x9FF8, symBinAddr: 0x10000AC84, symSize: 0x50 }
  - { offsetInCU: 0x301FF, offset: 0x301FF, size: 0x8, addend: 0x0, symName: __ZNSt3__16vectorINS0_IiNS_9allocatorIiEEEENS1_IS3_EEED1B7v160006Ev, symObjAddr: 0x2D34, symBinAddr: 0x1000039C0, symSize: 0x74 }
  - { offsetInCU: 0x308DB, offset: 0x308DB, size: 0x8, addend: 0x0, symName: __Z10PalindromeNSt3__112basic_stringIcNS_11char_traitsIcEENS_9allocatorIcEEEE, symObjAddr: 0x2DA8, symBinAddr: 0x100003A34, symSize: 0x1F0 }
  - { offsetInCU: 0x30EA1, offset: 0x30EA1, size: 0x8, addend: 0x0, symName: __ZNSt3__16vectorINS_12basic_stringIcNS_11char_traitsIcEENS_9allocatorIcEEEENS4_IS6_EEE21__push_back_slow_pathIRKS6_EEvOT_, symObjAddr: 0xA080, symBinAddr: 0x10000AD0C, symSize: 0x18C }
  - { offsetInCU: 0x31541, offset: 0x31541, size: 0x8, addend: 0x0, symName: __Z10PalindromeNSt3__112basic_stringIcNS_11char_traitsIcEENS_9allocatorIcEEEE.cold.1, symObjAddr: 0xA720, symBinAddr: 0x10000B468, symSize: 0x68 }
  - { offsetInCU: 0x317CB, offset: 0x317CB, size: 0x8, addend: 0x0, symName: _main, symObjAddr: 0x2F98, symBinAddr: 0x100003C24, symSize: 0x104 }
  - { offsetInCU: 0x31A58, offset: 0x31A58, size: 0x8, addend: 0x0, symName: __ZNSt12length_errorC1B7v160006EPKc, symObjAddr: 0x3380, symBinAddr: 0x10000400C, symSize: 0x24 }
  - { offsetInCU: 0x31CDB, offset: 0x31CDB, size: 0x8, addend: 0x0, symName: __ZNSt3__16vectorIN7atcoder13static_modintILi754974721ELPv0EEENS_9allocatorIS4_EEE8__appendEm, symObjAddr: 0x4344, symBinAddr: 0x100004FD0, symSize: 0x1A8 }
  - { offsetInCU: 0x321AC, offset: 0x321AC, size: 0x8, addend: 0x0, symName: __ZN7atcoder8internal8fft_infoINS_13static_modintILi754974721ELPv0EEELi11ELS3_0EEC2Ev, symObjAddr: 0x44EC, symBinAddr: 0x100005178, symSize: 0x16C }
  - { offsetInCU: 0x321B7, offset: 0x321B7, size: 0x8, addend: 0x0, symName: __ZN7atcoder8internal15convolution_fftINS_13static_modintILi754974721ELPv0EEELS3_0EEENSt3__16vectorIT_NS5_9allocatorIS7_EEEESA_SA_.cold.1, symObjAddr: 0xA788, symBinAddr: 0x10000B4D0, symSize: 0x24 }
  - { offsetInCU: 0x322DB, offset: 0x322DB, size: 0x8, addend: 0x0, symName: __ZN7atcoder8internal8fft_infoINS_13static_modintILi754974721ELPv0EEELi11ELS3_0EEC2Ev, symObjAddr: 0x44EC, symBinAddr: 0x100005178, symSize: 0x16C }
  - { offsetInCU: 0x32D13, offset: 0x32D13, size: 0x8, addend: 0x0, symName: __ZNSt3__16vectorIN7atcoder13static_modintILi167772161ELPv0EEENS_9allocatorIS4_EEE8__appendEm, symObjAddr: 0x5858, symBinAddr: 0x1000064E4, symSize: 0x1A8 }
  - { offsetInCU: 0x331E4, offset: 0x331E4, size: 0x8, addend: 0x0, symName: __ZN7atcoder8internal8fft_infoINS_13static_modintILi167772161ELPv0EEELi3ELS3_0EEC2Ev, symObjAddr: 0x5A00, symBinAddr: 0x10000668C, symSize: 0x15C }
  - { offsetInCU: 0x331EF, offset: 0x331EF, size: 0x8, addend: 0x0, symName: __ZN7atcoder8internal15convolution_fftINS_13static_modintILi167772161ELPv0EEELS3_0EEENSt3__16vectorIT_NS5_9allocatorIS7_EEEESA_SA_.cold.1, symObjAddr: 0xA7AC, symBinAddr: 0x10000B4F4, symSize: 0x24 }
  - { offsetInCU: 0x33313, offset: 0x33313, size: 0x8, addend: 0x0, symName: __ZN7atcoder8internal8fft_infoINS_13static_modintILi167772161ELPv0EEELi3ELS3_0EEC2Ev, symObjAddr: 0x5A00, symBinAddr: 0x10000668C, symSize: 0x15C }
  - { offsetInCU: 0x33D49, offset: 0x33D49, size: 0x8, addend: 0x0, symName: __ZNSt3__16vectorIN7atcoder13static_modintILi469762049ELPv0EEENS_9allocatorIS4_EEE8__appendEm, symObjAddr: 0x6D5C, symBinAddr: 0x1000079E8, symSize: 0x1A8 }
  - { offsetInCU: 0x3421A, offset: 0x3421A, size: 0x8, addend: 0x0, symName: __ZN7atcoder8internal8fft_infoINS_13static_modintILi469762049ELPv0EEELi3ELS3_0EEC2Ev, symObjAddr: 0x6F04, symBinAddr: 0x100007B90, symSize: 0x15C }
  - { offsetInCU: 0x34225, offset: 0x34225, size: 0x8, addend: 0x0, symName: __ZN7atcoder8internal15convolution_fftINS_13static_modintILi469762049ELPv0EEELS3_0EEENSt3__16vectorIT_NS5_9allocatorIS7_EEEESA_SA_.cold.1, symObjAddr: 0xA7D0, symBinAddr: 0x10000B518, symSize: 0x24 }
  - { offsetInCU: 0x34349, offset: 0x34349, size: 0x8, addend: 0x0, symName: __ZN7atcoder8internal8fft_infoINS_13static_modintILi469762049ELPv0EEELi3ELS3_0EEC2Ev, symObjAddr: 0x6F04, symBinAddr: 0x100007B90, symSize: 0x15C }
  - { offsetInCU: 0x34AE4, offset: 0x34AE4, size: 0x8, addend: 0x0, symName: __ZNSt12out_of_rangeC1B7v160006EPKc, symObjAddr: 0xA048, symBinAddr: 0x10000ACD4, symSize: 0x24 }
  - { offsetInCU: 0x34FF9, offset: 0x34FF9, size: 0x8, addend: 0x0, symName: __ZNKSt3__16vectorINS_12basic_stringIcNS_11char_traitsIcEENS_9allocatorIcEEEENS4_IS6_EEE20__throw_length_errorB7v160006Ev, symObjAddr: 0xA270, symBinAddr: 0x10000AEFC, symSize: 0x14 }
  - { offsetInCU: 0x35022, offset: 0x35022, size: 0x8, addend: 0x0, symName: __ZNSt3__124__put_character_sequenceB7v160006IcNS_11char_traitsIcEEEERNS_13basic_ostreamIT_T0_EES7_PKS4_m, symObjAddr: 0xA284, symBinAddr: 0x10000AF10, symSize: 0x164 }
  - { offsetInCU: 0x3502D, offset: 0x3502D, size: 0x8, addend: 0x0, symName: __ZNSt3__114__split_bufferINS_12basic_stringIcNS_11char_traitsIcEENS_9allocatorIcEEEERNS4_IS6_EEED1Ev, symObjAddr: 0xA20C, symBinAddr: 0x10000AE98, symSize: 0x64 }
  - { offsetInCU: 0x3569F, offset: 0x3569F, size: 0x8, addend: 0x0, symName: __ZNKSt3__112basic_stringIcNS_11char_traitsIcEENS_9allocatorIcEEE20__throw_length_errorB7v160006Ev, symObjAddr: 0xA57C, symBinAddr: 0x10000B208, symSize: 0x14 }
  - { offsetInCU: 0x356C8, offset: 0x356C8, size: 0x8, addend: 0x0, symName: __ZN7atcoder7pow_modExxi.cold.1, symObjAddr: 0xA590, symBinAddr: 0x10000B2D8, symSize: 0x28 }
  - { offsetInCU: 0x35702, offset: 0x35702, size: 0x8, addend: 0x0, symName: _OUTLINED_FUNCTION_0, symObjAddr: 0xA7F4, symBinAddr: 0x10000B21C, symSize: 0x8 }
...
